; Function Attrs: mustprogress nofree norecurse nosync nounwind willreturn memory(argmem: readwrite) uwtable
define hidden ptr @hb_font_get_var_coords_design(ptr nocapture noundef readonly %0, ptr noundef writeonly %1) local_unnamed_addr #13 {
  %.not = icmp eq ptr %1, null
  br i1 %.not, label %6, label %3

3:                                                ; preds = %2
  %4 = getelementptr inbounds i8, ptr %0, i64 120
  %5 = load i32, ptr %4, align 8
  store i32 %5, ptr %1, align 4
  br label %6

6:                                                ; preds = %3, %2
  %7 = getelementptr inbounds i8, ptr %0, i64 136
  %8 = load ptr, ptr %7, align 8
  ret ptr %8
}